; Function Attrs: nounwind uwtable
define dso_local void @ACLKillPubsubClientsIfNeeded(ptr noundef readonly captures(none) %0, ptr noundef readonly captures(address) %1) local_unnamed_addr #0 {
  %3 = alloca %struct.listIter, align 8
  %4 = tail call i32 @pubsubTotalSubscriptions() #25
  %5 = icmp eq i32 %4, 0
  br i1 %5, label %21, label %6

6:                                                ; preds = %2
  %7 = tail call ptr @getUpcomingChannelList(ptr noundef %0, ptr noundef %1)
  %.not = icmp eq ptr %7, null
  br i1 %.not, label %21, label %8

8:                                                ; preds = %6
  call void @llvm.lifetime.start.p0(i64 16, ptr nonnull %3) #25
  %9 = load ptr, ptr getelementptr inbounds nuw (i8, ptr @server, i64 1432), align 8, !tbaa !92
  call void @listRewind(ptr noundef %9, ptr noundef nonnull %3) #25
  %10 = call ptr @listNext(ptr noundef nonnull %3) #25
  %.not1114 = icmp eq ptr %10, null
  br i1 %.not1114, label %._crit_edge, label %.lr.ph

.lr.ph:                                           ; preds = %8, %19
  %11 = phi ptr [ %20, %19 ], [ %10, %8 ]
  %12 = getelementptr inbounds nuw i8, ptr %11, i64 16
  %13 = load ptr, ptr %12, align 8, !tbaa !85
  %14 = getelementptr inbounds nuw i8, ptr %13, i64 160
  %15 = load ptr, ptr %14, align 8, !tbaa !93
  %.not12 = icmp eq ptr %15, %1
  br i1 %.not12, label %16, label %19, !llvm.loop !197

16:                                               ; preds = %.lr.ph
  %17 = call i32 @ACLShouldKillPubsubClient(ptr noundef nonnull %13, ptr noundef nonnull %7)
  %.not13 = icmp eq i32 %17, 0
  br i1 %.not13, label %19, label %18

18:                                               ; preds = %16
  call void @deauthenticateAndCloseClient(ptr noundef nonnull %13) #25
  br label %19

19:                                               ; preds = %16, %18, %.lr.ph
  %20 = call ptr @listNext(ptr noundef nonnull %3) #25
  %.not11 = icmp eq ptr %20, null
  br i1 %.not11, label %._crit_edge, label %.lr.ph

._crit_edge:                                      ; preds = %19, %8
  call void @listRelease(ptr noundef nonnull %7) #25
  call void @llvm.lifetime.end.p0(i64 16, ptr nonnull %3) #25
  br label %21

21:                                               ; preds = %._crit_edge, %6, %2
  ret void
}